target datalayout = "e-m:e-p270:32:32-p271:32:32-p272:64:64-i64:64-i128:128-f80:128-n8:16:32:64-S128"
target triple = "x86_64-pc-linux-gnu"

%struct.ma_allocation_callbacks = type { ptr, ptr, ptr, ptr }
%struct.ma_biquad_config = type { i32, i32, double, double, double, double, double, double }
%struct.ma_biquad_heap_layout = type { i64, i64, i64 }
%struct.ma_biquad = type { i32, i32, %union.ma_biquad_coefficient, %union.ma_biquad_coefficient, %union.ma_biquad_coefficient, %union.ma_biquad_coefficient, %union.ma_biquad_coefficient, ptr, ptr, ptr, i32 }
%union.ma_biquad_coefficient = type { float }
%struct.ma_lpf1_config = type { i32, i32, i32, double, double }
%struct.ma_lpf2 = type { %struct.ma_biquad }

; Function Attrs: alwaysinline nounwind uwtable
define internal void @ma_zero_memory_default(ptr noundef %0, i64 noundef %1) #7 {
  %3 = alloca ptr, align 8
  %4 = alloca i64, align 8
  store ptr %0, ptr %3, align 8
  store i64 %1, ptr %4, align 8
  %5 = load ptr, ptr %3, align 8
  %6 = icmp eq ptr %5, null
  br i1 %6, label %7, label %8

7:                                                ; preds = %2
  br label %14

8:                                                ; preds = %2
  %9 = load i64, ptr %4, align 8
  %10 = icmp ugt i64 %9, 0
  br i1 %10, label %11, label %14

11:                                               ; preds = %8
  %12 = load ptr, ptr %3, align 8
  %13 = load i64, ptr %4, align 8
  call void @llvm.memset.p0.i64(ptr align 1 %12, i8 0, i64 %13, i1 false)
  br label %14

14:                                               ; preds = %7, %11, %8
  ret void
}

; Function Attrs: nounwind uwtable
define internal i32 @ma_biquad_get_heap_layout(ptr noundef %0, ptr noundef %1) #0 {
  %3 = alloca i32, align 4
  %4 = alloca ptr, align 8
  %5 = alloca ptr, align 8
  store ptr %0, ptr %4, align 8
  store ptr %1, ptr %5, align 8
  %6 = load ptr, ptr %5, align 8
  call void @ma_zero_memory_default(ptr noundef %6, i64 noundef 24)
  %7 = load ptr, ptr %4, align 8
  %8 = icmp eq ptr %7, null
  br i1 %8, label %9, label %10

9:                                                ; preds = %2
  store i32 -2, ptr %3, align 4
  br label %54

10:                                               ; preds = %2
  %11 = load ptr, ptr %4, align 8
  %12 = getelementptr inbounds nuw %struct.ma_biquad_config, ptr %11, i32 0, i32 1
  %13 = load i32, ptr %12, align 4
  %14 = icmp eq i32 %13, 0
  br i1 %14, label %15, label %16

15:                                               ; preds = %10
  store i32 -2, ptr %3, align 4
  br label %54

16:                                               ; preds = %10
  %17 = load ptr, ptr %5, align 8
  %18 = getelementptr inbounds nuw %struct.ma_biquad_heap_layout, ptr %17, i32 0, i32 0
  store i64 0, ptr %18, align 8
  %19 = load ptr, ptr %5, align 8
  %20 = getelementptr inbounds nuw %struct.ma_biquad_heap_layout, ptr %19, i32 0, i32 0
  %21 = load i64, ptr %20, align 8
  %22 = load ptr, ptr %5, align 8
  %23 = getelementptr inbounds nuw %struct.ma_biquad_heap_layout, ptr %22, i32 0, i32 1
  store i64 %21, ptr %23, align 8
  %24 = load ptr, ptr %4, align 8
  %25 = getelementptr inbounds nuw %struct.ma_biquad_config, ptr %24, i32 0, i32 1
  %26 = load i32, ptr %25, align 4
  %27 = zext i32 %26 to i64
  %28 = mul i64 4, %27
  %29 = load ptr, ptr %5, align 8
  %30 = getelementptr inbounds nuw %struct.ma_biquad_heap_layout, ptr %29, i32 0, i32 0
  %31 = load i64, ptr %30, align 8
  %32 = add i64 %31, %28
  store i64 %32, ptr %30, align 8
  %33 = load ptr, ptr %5, align 8
  %34 = getelementptr inbounds nuw %struct.ma_biquad_heap_layout, ptr %33, i32 0, i32 0
  %35 = load i64, ptr %34, align 8
  %36 = load ptr, ptr %5, align 8
  %37 = getelementptr inbounds nuw %struct.ma_biquad_heap_layout, ptr %36, i32 0, i32 2
  store i64 %35, ptr %37, align 8
  %38 = load ptr, ptr %4, align 8
  %39 = getelementptr inbounds nuw %struct.ma_biquad_config, ptr %38, i32 0, i32 1
  %40 = load i32, ptr %39, align 4
  %41 = zext i32 %40 to i64
  %42 = mul i64 4, %41
  %43 = load ptr, ptr %5, align 8
  %44 = getelementptr inbounds nuw %struct.ma_biquad_heap_layout, ptr %43, i32 0, i32 0
  %45 = load i64, ptr %44, align 8
  %46 = add i64 %45, %42
  store i64 %46, ptr %44, align 8
  %47 = load ptr, ptr %5, align 8
  %48 = getelementptr inbounds nuw %struct.ma_biquad_heap_layout, ptr %47, i32 0, i32 0
  %49 = load i64, ptr %48, align 8
  %50 = add i64 %49, 7
  %51 = and i64 %50, -8
  %52 = load ptr, ptr %5, align 8
  %53 = getelementptr inbounds nuw %struct.ma_biquad_heap_layout, ptr %52, i32 0, i32 0
  store i64 %51, ptr %53, align 8
  store i32 0, ptr %3, align 4
  br label %54

54:                                               ; preds = %16, %15, %9
  %55 = load i32, ptr %3, align 4
  ret i32 %55
}

; Function Attrs: alwaysinline nounwind uwtable
define internal double @ma_cosd(double noundef %0) #7 {
  %2 = alloca double, align 8
  store double %0, ptr %2, align 8
  %3 = load double, ptr %2, align 8
  %4 = fsub double 0x3FF921FB54442D18, %3
  %5 = call double @ma_sind(double noundef %4)
  ret double %5
}

; Function Attrs: alwaysinline nounwind uwtable
define internal double @ma_sind(double noundef %0) #7 {
  %2 = alloca double, align 8
  store double %0, ptr %2, align 8
  %3 = load double, ptr %2, align 8
  %4 = call double @sin(double noundef %3) #21
  ret double %4
}

; Function Attrs: nounwind uwtable
define internal void @ma__free_default(ptr noundef %0, ptr noundef %1) #0 {
  %3 = alloca ptr, align 8
  %4 = alloca ptr, align 8
  store ptr %0, ptr %3, align 8
  store ptr %1, ptr %4, align 8
  %5 = load ptr, ptr %3, align 8
  call void @free(ptr noundef %5) #21
  ret void
}

; Function Attrs: nounwind uwtable
define internal ptr @ma__malloc_default(i64 noundef %0, ptr noundef %1) #0 {
  %3 = alloca i64, align 8
  %4 = alloca ptr, align 8
  store i64 %0, ptr %3, align 8
  store ptr %1, ptr %4, align 8
  %5 = load i64, ptr %3, align 8
  %6 = call noalias ptr @malloc(i64 noundef %5) #27
  ret ptr %6
}

; Function Attrs: nounwind uwtable
define hidden i32 @ma_biquad_get_heap_size(ptr noundef %0, ptr noundef %1) #0 {
  %3 = alloca i32, align 4
  %4 = alloca ptr, align 8
  %5 = alloca ptr, align 8
  %6 = alloca i32, align 4
  %7 = alloca %struct.ma_biquad_heap_layout, align 8
  %8 = alloca i32, align 4
  store ptr %0, ptr %4, align 8
  store ptr %1, ptr %5, align 8
  call void @llvm.lifetime.start.p0(i64 4, ptr %6) #21
  call void @llvm.lifetime.start.p0(i64 24, ptr %7) #21
  %9 = load ptr, ptr %5, align 8
  %10 = icmp eq ptr %9, null
  br i1 %10, label %11, label %12

11:                                               ; preds = %2
  store i32 -2, ptr %3, align 4
  store i32 1, ptr %8, align 4
  br label %24

12:                                               ; preds = %2
  %13 = load ptr, ptr %5, align 8
  store i64 0, ptr %13, align 8
  %14 = load ptr, ptr %4, align 8
  %15 = call i32 @ma_biquad_get_heap_layout(ptr noundef %14, ptr noundef %7)
  store i32 %15, ptr %6, align 4
  %16 = load i32, ptr %6, align 4
  %17 = icmp ne i32 %16, 0
  br i1 %17, label %18, label %20

18:                                               ; preds = %12
  %19 = load i32, ptr %6, align 4
  store i32 %19, ptr %3, align 4
  store i32 1, ptr %8, align 4
  br label %24

20:                                               ; preds = %12
  %21 = getelementptr inbounds nuw %struct.ma_biquad_heap_layout, ptr %7, i32 0, i32 0
  %22 = load i64, ptr %21, align 8
  %23 = load ptr, ptr %5, align 8
  store i64 %22, ptr %23, align 8
  store i32 0, ptr %3, align 4
  store i32 1, ptr %8, align 4
  br label %24

24:                                               ; preds = %20, %18, %11
  call void @llvm.lifetime.end.p0(i64 24, ptr %7) #21
  call void @llvm.lifetime.end.p0(i64 4, ptr %6) #21
  %25 = load i32, ptr %3, align 4
  ret i32 %25
}

; Function Attrs: alwaysinline nounwind uwtable
define internal void @ma_lpf2__get_biquad_config(ptr dead_on_unwind noalias writable sret(%struct.ma_biquad_config) align 8 %0, ptr noundef %1) #7 {
  %3 = alloca ptr, align 8
  %4 = alloca double, align 8
  %5 = alloca double, align 8
  %6 = alloca double, align 8
  %7 = alloca double, align 8
  %8 = alloca double, align 8
  store ptr %1, ptr %3, align 8
  call void @llvm.lifetime.start.p0(i64 8, ptr %4) #21
  call void @llvm.lifetime.start.p0(i64 8, ptr %5) #21
  call void @llvm.lifetime.start.p0(i64 8, ptr %6) #21
  call void @llvm.lifetime.start.p0(i64 8, ptr %7) #21
  call void @llvm.lifetime.start.p0(i64 8, ptr %8) #21
  %9 = load ptr, ptr %3, align 8
  %10 = getelementptr inbounds nuw %struct.ma_lpf1_config, ptr %9, i32 0, i32 4
  %11 = load double, ptr %10, align 8
  store double %11, ptr %4, align 8
  %12 = load ptr, ptr %3, align 8
  %13 = getelementptr inbounds nuw %struct.ma_lpf1_config, ptr %12, i32 0, i32 3
  %14 = load double, ptr %13, align 8
  %15 = fmul double 0x401921FB54442D18, %14
  %16 = load ptr, ptr %3, align 8
  %17 = getelementptr inbounds nuw %struct.ma_lpf1_config, ptr %16, i32 0, i32 2
  %18 = load i32, ptr %17, align 8
  %19 = uitofp i32 %18 to double
  %20 = fdiv double %15, %19
  store double %20, ptr %5, align 8
  %21 = load double, ptr %5, align 8
  %22 = call double @ma_sind(double noundef %21)
  store double %22, ptr %6, align 8
  %23 = load double, ptr %5, align 8
  %24 = call double @ma_cosd(double noundef %23)
  store double %24, ptr %7, align 8
  %25 = load double, ptr %6, align 8
  %26 = load double, ptr %4, align 8
  %27 = fmul double 2.000000e+00, %26
  %28 = fdiv double %25, %27
  store double %28, ptr %8, align 8
  %29 = load double, ptr %7, align 8
  %30 = fsub double 1.000000e+00, %29
  %31 = fdiv double %30, 2.000000e+00
  %32 = getelementptr inbounds nuw %struct.ma_biquad_config, ptr %0, i32 0, i32 2
  store double %31, ptr %32, align 8
  %33 = load double, ptr %7, align 8
  %34 = fsub double 1.000000e+00, %33
  %35 = getelementptr inbounds nuw %struct.ma_biquad_config, ptr %0, i32 0, i32 3
  store double %34, ptr %35, align 8
  %36 = load double, ptr %7, align 8
  %37 = fsub double 1.000000e+00, %36
  %38 = fdiv double %37, 2.000000e+00
  %39 = getelementptr inbounds nuw %struct.ma_biquad_config, ptr %0, i32 0, i32 4
  store double %38, ptr %39, align 8
  %40 = load double, ptr %8, align 8
  %41 = fadd double 1.000000e+00, %40
  %42 = getelementptr inbounds nuw %struct.ma_biquad_config, ptr %0, i32 0, i32 5
  store double %41, ptr %42, align 8
  %43 = load double, ptr %7, align 8
  %44 = fmul double -2.000000e+00, %43
  %45 = getelementptr inbounds nuw %struct.ma_biquad_config, ptr %0, i32 0, i32 6
  store double %44, ptr %45, align 8
  %46 = load double, ptr %8, align 8
  %47 = fsub double 1.000000e+00, %46
  %48 = getelementptr inbounds nuw %struct.ma_biquad_config, ptr %0, i32 0, i32 7
  store double %47, ptr %48, align 8
  %49 = load ptr, ptr %3, align 8
  %50 = getelementptr inbounds nuw %struct.ma_lpf1_config, ptr %49, i32 0, i32 0
  %51 = load i32, ptr %50, align 8
  %52 = getelementptr inbounds nuw %struct.ma_biquad_config, ptr %0, i32 0, i32 0
  store i32 %51, ptr %52, align 8
  %53 = load ptr, ptr %3, align 8
  %54 = getelementptr inbounds nuw %struct.ma_lpf1_config, ptr %53, i32 0, i32 1
  %55 = load i32, ptr %54, align 4
  %56 = getelementptr inbounds nuw %struct.ma_biquad_config, ptr %0, i32 0, i32 1
  store i32 %55, ptr %56, align 4
  call void @llvm.lifetime.end.p0(i64 8, ptr %8) #21
  call void @llvm.lifetime.end.p0(i64 8, ptr %7) #21
  call void @llvm.lifetime.end.p0(i64 8, ptr %6) #21
  call void @llvm.lifetime.end.p0(i64 8, ptr %5) #21
  call void @llvm.lifetime.end.p0(i64 8, ptr %4) #21
  ret void
}

; Function Attrs: nounwind uwtable
define hidden void @ma_free(ptr noundef %0, ptr noundef %1) #0 {
  %3 = alloca ptr, align 8
  %4 = alloca ptr, align 8
  store ptr %0, ptr %3, align 8
  store ptr %1, ptr %4, align 8
  %5 = load ptr, ptr %3, align 8
  %6 = icmp eq ptr %5, null
  br i1 %6, label %7, label %8

7:                                                ; preds = %2
  br label %28

8:                                                ; preds = %2
  %9 = load ptr, ptr %4, align 8
  %10 = icmp ne ptr %9, null
  br i1 %10, label %11, label %26

11:                                               ; preds = %8
  %12 = load ptr, ptr %4, align 8
  %13 = getelementptr inbounds nuw %struct.ma_allocation_callbacks, ptr %12, i32 0, i32 3
  %14 = load ptr, ptr %13, align 8
  %15 = icmp ne ptr %14, null
  br i1 %15, label %16, label %24

16:                                               ; preds = %11
  %17 = load ptr, ptr %4, align 8
  %18 = getelementptr inbounds nuw %struct.ma_allocation_callbacks, ptr %17, i32 0, i32 3
  %19 = load ptr, ptr %18, align 8
  %20 = load ptr, ptr %3, align 8
  %21 = load ptr, ptr %4, align 8
  %22 = getelementptr inbounds nuw %struct.ma_allocation_callbacks, ptr %21, i32 0, i32 0
  %23 = load ptr, ptr %22, align 8
  call void %19(ptr noundef %20, ptr noundef %23)
  br label %25

24:                                               ; preds = %11
  br label %28

25:                                               ; preds = %16
  br label %28

26:                                               ; preds = %8
  %27 = load ptr, ptr %3, align 8
  call void @ma__free_default(ptr noundef %27, ptr noundef null)
  br label %28

28:                                               ; preds = %7, %24, %26, %25
  ret void
}

; Function Attrs: nounwind uwtable
define hidden ptr @ma_malloc(i64 noundef %0, ptr noundef %1) #0 {
  %3 = alloca ptr, align 8
  %4 = alloca i64, align 8
  %5 = alloca ptr, align 8
  store i64 %0, ptr %4, align 8
  store ptr %1, ptr %5, align 8
  %6 = load ptr, ptr %5, align 8
  %7 = icmp ne ptr %6, null
  br i1 %7, label %8, label %23

8:                                                ; preds = %2
  %9 = load ptr, ptr %5, align 8
  %10 = getelementptr inbounds nuw %struct.ma_allocation_callbacks, ptr %9, i32 0, i32 1
  %11 = load ptr, ptr %10, align 8
  %12 = icmp ne ptr %11, null
  br i1 %12, label %13, label %22

13:                                               ; preds = %8
  %14 = load ptr, ptr %5, align 8
  %15 = getelementptr inbounds nuw %struct.ma_allocation_callbacks, ptr %14, i32 0, i32 1
  %16 = load ptr, ptr %15, align 8
  %17 = load i64, ptr %4, align 8
  %18 = load ptr, ptr %5, align 8
  %19 = getelementptr inbounds nuw %struct.ma_allocation_callbacks, ptr %18, i32 0, i32 0
  %20 = load ptr, ptr %19, align 8
  %21 = call ptr %16(i64 noundef %17, ptr noundef %20)
  store ptr %21, ptr %3, align 8
  br label %26

22:                                               ; preds = %8
  store ptr null, ptr %3, align 8
  br label %26

23:                                               ; preds = %2
  %24 = load i64, ptr %4, align 8
  %25 = call ptr @ma__malloc_default(i64 noundef %24, ptr noundef null)
  store ptr %25, ptr %3, align 8
  br label %26

26:                                               ; preds = %23, %22, %13
  %27 = load ptr, ptr %3, align 8
  ret ptr %27
}

; Function Attrs: nounwind uwtable
define hidden i32 @ma_lpf2_get_heap_size(ptr noundef %0, ptr noundef %1) #0 {
  %3 = alloca ptr, align 8
  %4 = alloca ptr, align 8
  %5 = alloca %struct.ma_biquad_config, align 8
  %6 = alloca %struct.ma_biquad_config, align 8
  store ptr %0, ptr %3, align 8
  store ptr %1, ptr %4, align 8
  call void @llvm.lifetime.start.p0(i64 56, ptr %5) #21
  call void @llvm.lifetime.start.p0(i64 56, ptr %6) #21
  %7 = load ptr, ptr %3, align 8
  call void @ma_lpf2__get_biquad_config(ptr dead_on_unwind writable sret(%struct.ma_biquad_config) align 8 %6, ptr noundef %7)
  call void @llvm.memcpy.p0.p0.i64(ptr align 8 %5, ptr align 8 %6, i64 56, i1 false)
  call void @llvm.lifetime.end.p0(i64 56, ptr %6) #21
  %8 = load ptr, ptr %4, align 8
  %9 = call i32 @ma_biquad_get_heap_size(ptr noundef %5, ptr noundef %8)
  call void @llvm.lifetime.end.p0(i64 56, ptr %5) #21
  ret i32 %9
}

; Function Attrs: nounwind uwtable
define hidden i32 @ma_lpf2_init(ptr noundef %0, ptr noundef %1, ptr noundef %2) #0 {
  %4 = alloca i32, align 4
  %5 = alloca ptr, align 8
  %6 = alloca ptr, align 8
  %7 = alloca ptr, align 8
  %8 = alloca i32, align 4
  %9 = alloca i64, align 8
  %10 = alloca ptr, align 8
  %11 = alloca i32, align 4
  store ptr %0, ptr %5, align 8
  store ptr %1, ptr %6, align 8
  store ptr %2, ptr %7, align 8
  call void @llvm.lifetime.start.p0(i64 4, ptr %8) #21
  call void @llvm.lifetime.start.p0(i64 8, ptr %9) #21
  call void @llvm.lifetime.start.p0(i64 8, ptr %10) #21
  %12 = load ptr, ptr %5, align 8
  %13 = call i32 @ma_lpf2_get_heap_size(ptr noundef %12, ptr noundef %9)
  store i32 %13, ptr %8, align 4
  %14 = load i32, ptr %8, align 4
  %15 = icmp ne i32 %14, 0
  br i1 %15, label %16, label %18

16:                                               ; preds = %3
  %17 = load i32, ptr %8, align 4
  store i32 %17, ptr %4, align 4
  store i32 1, ptr %11, align 4
  br label %45

18:                                               ; preds = %3
  %19 = load i64, ptr %9, align 8
  %20 = icmp ugt i64 %19, 0
  br i1 %20, label %21, label %29

21:                                               ; preds = %18
  %22 = load i64, ptr %9, align 8
  %23 = load ptr, ptr %6, align 8
  %24 = call ptr @ma_malloc(i64 noundef %22, ptr noundef %23)
  store ptr %24, ptr %10, align 8
  %25 = load ptr, ptr %10, align 8
  %26 = icmp eq ptr %25, null
  br i1 %26, label %27, label %28

27:                                               ; preds = %21
  store i32 -4, ptr %4, align 4
  store i32 1, ptr %11, align 4
  br label %45

28:                                               ; preds = %21
  br label %30

29:                                               ; preds = %18
  store ptr null, ptr %10, align 8
  br label %30

30:                                               ; preds = %29, %28
  %31 = load ptr, ptr %5, align 8
  %32 = load ptr, ptr %10, align 8
  %33 = load ptr, ptr %7, align 8
  %34 = call i32 @ma_lpf2_init_preallocated(ptr noundef %31, ptr noundef %32, ptr noundef %33)
  store i32 %34, ptr %8, align 4
  %35 = load i32, ptr %8, align 4
  %36 = icmp ne i32 %35, 0
  br i1 %36, label %37, label %41

37:                                               ; preds = %30
  %38 = load ptr, ptr %10, align 8
  %39 = load ptr, ptr %6, align 8
  call void @ma_free(ptr noundef %38, ptr noundef %39)
  %40 = load i32, ptr %8, align 4
  store i32 %40, ptr %4, align 4
  store i32 1, ptr %11, align 4
  br label %45

41:                                               ; preds = %30
  %42 = load ptr, ptr %7, align 8
  %43 = getelementptr inbounds nuw %struct.ma_lpf2, ptr %42, i32 0, i32 0
  %44 = getelementptr inbounds nuw %struct.ma_biquad, ptr %43, i32 0, i32 10
  store i32 1, ptr %44, align 8
  store i32 0, ptr %4, align 4
  store i32 1, ptr %11, align 4
  br label %45

45:                                               ; preds = %41, %37, %27, %16
  call void @llvm.lifetime.end.p0(i64 8, ptr %10) #21
  call void @llvm.lifetime.end.p0(i64 8, ptr %9) #21
  call void @llvm.lifetime.end.p0(i64 4, ptr %8) #21
  %46 = load i32, ptr %4, align 4
  ret i32 %46
}