; Function Attrs: nounwind uwtable
define hidden range(i32 -4, 1) i32 @ma_lpf2_init(ptr noundef captures(address_is_null) %0, ptr noundef readonly captures(address_is_null) %1, ptr noundef captures(address_is_null) %2) local_unnamed_addr #7 {
  %4 = getelementptr inbounds nuw i8, ptr %0, i64 16
  %5 = load double, ptr %4, align 8, !noalias !15
  %6 = fmul double %5, 0x401921FB54442D18
  %7 = getelementptr inbounds nuw i8, ptr %0, i64 8
  %8 = load i32, ptr %7, align 8, !noalias !15
  %9 = uitofp i32 %8 to double
  %10 = fdiv double %6, %9
  %11 = tail call double @llvm.fabs.f64(double %10)
  %12 = fcmp oeq double %11, 0x7FF0000000000000
  br i1 %12, label %cdce.call, label %cdce.end.i, !prof !11

cdce.call:                                        ; preds = %3
  %13 = tail call double @sin(double noundef %10) #72, !noalias !15
  br label %cdce.end.i

cdce.end.i:                                       ; preds = %cdce.call, %3
  %14 = fsub double 0x3FF921FB54442D18, %10
  %15 = tail call double @llvm.fabs.f64(double %14)
  %16 = fcmp oeq double %15, 0x7FF0000000000000
  br i1 %16, label %cdce.call32, label %cdce.end10.i, !prof !11

cdce.call32:                                      ; preds = %cdce.end.i
  %17 = tail call double @sin(double noundef %14) #72, !noalias !15
  br label %cdce.end10.i

cdce.end10.i:                                     ; preds = %cdce.call32, %cdce.end.i
  %18 = getelementptr inbounds nuw i8, ptr %0, i64 4
  %19 = load i32, ptr %18, align 4, !noalias !15
  %20 = icmp eq i32 %19, 0
  br i1 %20, label %ma_lpf2_get_heap_size.exit, label %21

21:                                               ; preds = %cdce.end10.i
  %22 = zext i32 %19 to i64
  %23 = shl nuw nsw i64 %22, 3
  %.not.i = icmp eq ptr %1, null
  br i1 %.not.i, label %30, label %24

24:                                               ; preds = %21
  %25 = getelementptr inbounds nuw i8, ptr %1, i64 8
  %26 = load ptr, ptr %25, align 8
  %.not8.i = icmp eq ptr %26, null
  br i1 %.not8.i, label %ma_lpf2_get_heap_size.exit, label %27

27:                                               ; preds = %24
  %28 = load ptr, ptr %1, align 8
  %29 = tail call ptr %26(i64 noundef %23, ptr noundef %28) #72
  br label %ma_malloc.exit

30:                                               ; preds = %21
  %31 = tail call noalias noundef ptr @malloc(i64 noundef %23) #85
  br label %ma_malloc.exit

ma_malloc.exit:                                   ; preds = %27, %30
  %.0.i = phi ptr [ %29, %27 ], [ %31, %30 ]
  %32 = icmp eq ptr %.0.i, null
  br i1 %32, label %ma_lpf2_get_heap_size.exit, label %33

33:                                               ; preds = %ma_malloc.exit
  %34 = tail call i32 @ma_lpf2_init_preallocated(ptr noundef nonnull %0, ptr noundef nonnull %.0.i, ptr noundef %2)
  %.not19 = icmp eq i32 %34, 0
  br i1 %.not19, label %42, label %35

35:                                               ; preds = %33
  br i1 %.not.i, label %41, label %36

36:                                               ; preds = %35
  %37 = getelementptr inbounds nuw i8, ptr %1, i64 24
  %38 = load ptr, ptr %37, align 8
  %.not9.i = icmp eq ptr %38, null
  br i1 %.not9.i, label %ma_lpf2_get_heap_size.exit, label %39

39:                                               ; preds = %36
  %40 = load ptr, ptr %1, align 8
  tail call void %38(ptr noundef nonnull %.0.i, ptr noundef %40) #72
  br label %ma_lpf2_get_heap_size.exit

41:                                               ; preds = %35
  tail call void @free(ptr noundef nonnull %.0.i) #72
  br label %ma_lpf2_get_heap_size.exit

42:                                               ; preds = %33
  %43 = getelementptr inbounds nuw i8, ptr %2, i64 56
  store i32 1, ptr %43, align 8
  br label %ma_lpf2_get_heap_size.exit

ma_lpf2_get_heap_size.exit:                       ; preds = %24, %41, %39, %36, %cdce.end10.i, %ma_malloc.exit, %42
  %.013 = phi i32 [ 0, %42 ], [ -4, %ma_malloc.exit ], [ -2, %cdce.end10.i ], [ %34, %36 ], [ %34, %39 ], [ %34, %41 ], [ -4, %24 ]
  ret i32 %.013
}